; Function Attrs: mustprogress nofree norecurse nosync nounwind willreturn memory(none) uwtable
define dso_local noundef zeroext i1 @os_supports_stacktrace(i32 noundef %0) local_unnamed_addr #1 {
  switch i32 %0, label %2 [
    i32 9, label %5
    i32 28, label %os_is_apple.exit
    i32 27, label %os_is_apple.exit
    i32 11, label %os_is_apple.exit
    i32 7, label %os_is_apple.exit
  ]

2:                                                ; preds = %1
  br label %os_is_apple.exit

os_is_apple.exit:                                 ; preds = %1, %1, %1, %1, %2
  %3 = phi i1 [ false, %2 ], [ true, %1 ], [ true, %1 ], [ true, %1 ], [ true, %1 ]
  %4 = icmp eq i32 %0, 15
  %spec.select = or i1 %4, %3
  br label %5

5:                                                ; preds = %1, %os_is_apple.exit
  %6 = phi i1 [ true, %1 ], [ %spec.select, %os_is_apple.exit ]
  ret i1 %6
}